target datalayout = "e-m:e-p270:32:32-p271:32:32-p272:64:64-i64:64-i128:128-f80:128-n8:16:32:64-S128"
target triple = "x86_64-unknown-linux-gnu"

@.str.35 = private unnamed_addr constant [22 x i8] c"%s: phy read timeout\0A\00", align 1
@.str.36 = private unnamed_addr constant [19 x i8] c"%s: phy I/O error\0A\00", align 1
@.str.37 = private unnamed_addr constant [23 x i8] c"%s: phy write timeout\0A\00", align 1

; Function Attrs: fn_ret_thunk_extern nounwind null_pointer_is_valid
define internal fastcc noundef i32 @gm_phy_write(ptr nocapture noundef readonly %0, i32 noundef %1, i16 noundef zeroext %2, i16 noundef zeroext %3) unnamed_addr #2 align 16 {
  %5 = shl i32 %1, 12
  %6 = add i32 %5, 10372
  %7 = load ptr, ptr %0, align 8
  %8 = zext i32 %6 to i64
  %9 = getelementptr i8, ptr %7, i64 %8
  tail call void asm sideeffect "movw $0,$1", "r,*m,~{memory},~{dirflag},~{fpsr},~{flags}"(i16 %3, ptr elementtype(i16) %9) #22, !srcloc !13
  %10 = shl i16 %2, 6
  %11 = and i16 %10, 1984
  %12 = add i32 %5, 10368
  %13 = load ptr, ptr %0, align 8
  %14 = zext i32 %12 to i64
  %15 = getelementptr i8, ptr %13, i64 %14
  tail call void asm sideeffect "movw $0,$1", "r,*m,~{memory},~{dirflag},~{fpsr},~{flags}"(i16 %11, ptr elementtype(i16) %15) #22, !srcloc !13
  br label %16

16:                                               ; preds = %28, %4
  %17 = phi i32 [ 0, %4 ], [ %29, %28 ]
  %18 = load ptr, ptr %0, align 8
  %19 = getelementptr i8, ptr %18, i64 %14
  %20 = tail call i16 asm sideeffect "movw $1,$0", "=r,*m,~{memory},~{dirflag},~{fpsr},~{flags}"(ptr elementtype(i16) %19) #22, !srcloc !16
  %21 = icmp eq i16 %20, -1
  br i1 %21, label %26, label %22

22:                                               ; preds = %16
  %23 = and i16 %20, 8
  %24 = icmp eq i16 %23, 0
  br i1 %24, label %26, label %25

25:                                               ; preds = %22
  tail call void @__const_udelay(i64 noundef 42950) #22
  br label %26

26:                                               ; preds = %25, %22, %16
  %27 = phi i32 [ 0, %25 ], [ 5, %16 ], [ 1, %22 ]
  switch i32 %27, label %49 [
    i32 0, label %28
    i32 5, label %40
  ]

28:                                               ; preds = %26
  %29 = add nuw nsw i32 %17, 1
  %30 = icmp eq i32 %29, 1000
  br i1 %30, label %31, label %16, !llvm.loop !47

31:                                               ; preds = %28
  %32 = getelementptr inbounds i8, ptr %0, i64 8
  %33 = load ptr, ptr %32, align 8
  %34 = getelementptr inbounds i8, ptr %33, i64 184
  %35 = getelementptr inbounds i8, ptr %0, i64 416
  %36 = zext i32 %1 to i64
  %37 = getelementptr [2 x ptr], ptr %35, i64 0, i64 %36
  %38 = load ptr, ptr %37, align 8
  %39 = getelementptr inbounds i8, ptr %38, i64 296
  tail call void (ptr, ptr, ...) @_dev_warn(ptr noundef %34, ptr noundef nonnull @.str.37, ptr noundef %39) #23
  br label %49

40:                                               ; preds = %26
  %41 = getelementptr inbounds i8, ptr %0, i64 8
  %42 = load ptr, ptr %41, align 8
  %43 = getelementptr inbounds i8, ptr %42, i64 184
  %44 = getelementptr inbounds i8, ptr %0, i64 416
  %45 = zext i32 %1 to i64
  %46 = getelementptr [2 x ptr], ptr %44, i64 0, i64 %45
  %47 = load ptr, ptr %46, align 8
  %48 = getelementptr inbounds i8, ptr %47, i64 296
  tail call void (ptr, ptr, ...) @_dev_err(ptr noundef %43, ptr noundef nonnull @.str.36, ptr noundef %48) #23
  br label %49

49:                                               ; preds = %40, %31, %26
  %50 = phi i32 [ -5, %40 ], [ -110, %31 ], [ 0, %26 ]
  ret i32 %50
}

; Function Attrs: fn_ret_thunk_extern nounwind null_pointer_is_valid
define internal fastcc noundef i32 @__gm_phy_read(ptr nocapture noundef readonly %0, i32 noundef %1, i16 noundef zeroext %2, ptr nocapture noundef writeonly %3) unnamed_addr #2 align 16 {
  %5 = shl i16 %2, 6
  %6 = and i16 %5, 1984
  %7 = or disjoint i16 %6, 32
  %8 = shl i32 %1, 12
  %9 = add i32 %8, 10368
  %10 = load ptr, ptr %0, align 8
  %11 = zext i32 %9 to i64
  %12 = getelementptr i8, ptr %10, i64 %11
  tail call void asm sideeffect "movw $0,$1", "r,*m,~{memory},~{dirflag},~{fpsr},~{flags}"(i16 %7, ptr elementtype(i16) %12) #22, !srcloc !13
  %13 = add i32 %8, 10372
  %14 = zext i32 %13 to i64
  br label %15

15:                                               ; preds = %31, %4
  %16 = phi i32 [ 0, %4 ], [ %32, %31 ]
  %17 = load ptr, ptr %0, align 8
  %18 = getelementptr i8, ptr %17, i64 %11
  %19 = tail call i16 asm sideeffect "movw $1,$0", "=r,*m,~{memory},~{dirflag},~{fpsr},~{flags}"(ptr elementtype(i16) %18) #22, !srcloc !16
  %20 = icmp eq i16 %19, -1
  br i1 %20, label %29, label %21

21:                                               ; preds = %15
  %22 = and i16 %19, 16
  %23 = icmp eq i16 %22, 0
  br i1 %23, label %28, label %24

24:                                               ; preds = %21
  %25 = load ptr, ptr %0, align 8
  %26 = getelementptr i8, ptr %25, i64 %14
  %27 = tail call i16 asm sideeffect "movw $1,$0", "=r,*m,~{memory},~{dirflag},~{fpsr},~{flags}"(ptr elementtype(i16) %26) #22, !srcloc !16
  store i16 %27, ptr %3, align 2
  br label %29

28:                                               ; preds = %21
  tail call void @__const_udelay(i64 noundef 42950) #22
  br label %29

29:                                               ; preds = %28, %24, %15
  %30 = phi i32 [ 1, %24 ], [ 0, %28 ], [ 5, %15 ]
  switch i32 %30, label %52 [
    i32 0, label %31
    i32 5, label %43
  ]

31:                                               ; preds = %29
  %32 = add nuw nsw i32 %16, 1
  %33 = icmp eq i32 %32, 1000
  br i1 %33, label %34, label %15, !llvm.loop !48

34:                                               ; preds = %31
  %35 = getelementptr inbounds i8, ptr %0, i64 8
  %36 = load ptr, ptr %35, align 8
  %37 = getelementptr inbounds i8, ptr %36, i64 184
  %38 = getelementptr inbounds i8, ptr %0, i64 416
  %39 = zext i32 %1 to i64
  %40 = getelementptr [2 x ptr], ptr %38, i64 0, i64 %39
  %41 = load ptr, ptr %40, align 8
  %42 = getelementptr inbounds i8, ptr %41, i64 296
  tail call void (ptr, ptr, ...) @_dev_warn(ptr noundef %37, ptr noundef nonnull @.str.35, ptr noundef %42) #23
  br label %52

43:                                               ; preds = %29
  %44 = getelementptr inbounds i8, ptr %0, i64 8
  %45 = load ptr, ptr %44, align 8
  %46 = getelementptr inbounds i8, ptr %45, i64 184
  %47 = getelementptr inbounds i8, ptr %0, i64 416
  %48 = zext i32 %1 to i64
  %49 = getelementptr [2 x ptr], ptr %47, i64 0, i64 %48
  %50 = load ptr, ptr %49, align 8
  %51 = getelementptr inbounds i8, ptr %50, i64 296
  tail call void (ptr, ptr, ...) @_dev_err(ptr noundef %46, ptr noundef nonnull @.str.36, ptr noundef %51) #23
  br label %52

52:                                               ; preds = %43, %34, %29
  %53 = phi i32 [ -5, %43 ], [ -110, %34 ], [ 0, %29 ]
  ret i32 %53
}

; Function Attrs: fn_ret_thunk_extern nounwind null_pointer_is_valid
define internal noundef i32 @sky2_ioctl(ptr noundef %0, ptr nocapture noundef %1, i32 noundef %2) #2 align 16 {
  %4 = alloca i16, align 2
  %5 = getelementptr inbounds i8, ptr %1, i64 16
  %6 = getelementptr i8, ptr %0, i64 2304
  %7 = load ptr, ptr %6, align 64
  %8 = getelementptr inbounds i8, ptr %0, i64 352
  %9 = load volatile i64, ptr %8, align 8
  %10 = and i64 %9, 1
  %11 = icmp eq i64 %10, 0
  br i1 %11, label %34, label %12

12:                                               ; preds = %3
  switch i32 %2, label %34 [
    i32 35143, label %13
    i32 35144, label %14
    i32 35145, label %24
  ]

13:                                               ; preds = %12
  store i16 0, ptr %5, align 2
  br label %14

14:                                               ; preds = %13, %12
  call void @llvm.lifetime.start.p0(i64 2, ptr nonnull %4) #22
  store i16 0, ptr %4, align 2
  %15 = getelementptr i8, ptr %0, i64 2328
  tail call void @_raw_spin_lock_bh(ptr noundef %15) #22
  %16 = getelementptr i8, ptr %0, i64 2320
  %17 = load i32, ptr %16, align 16
  %18 = getelementptr inbounds i8, ptr %1, i64 18
  %19 = load i16, ptr %18, align 2
  %20 = and i16 %19, 31
  %21 = call fastcc i32 @__gm_phy_read(ptr noundef %7, i32 noundef %17, i16 noundef zeroext %20, ptr noundef nonnull %4)
  tail call void @_raw_spin_unlock_bh(ptr noundef %15) #22
  %22 = load i16, ptr %4, align 2
  %23 = getelementptr inbounds i8, ptr %1, i64 22
  store i16 %22, ptr %23, align 2
  call void @llvm.lifetime.end.p0(i64 2, ptr nonnull %4) #22
  br label %34

24:                                               ; preds = %12
  %25 = getelementptr i8, ptr %0, i64 2328
  tail call void @_raw_spin_lock_bh(ptr noundef %25) #22
  %26 = getelementptr i8, ptr %0, i64 2320
  %27 = load i32, ptr %26, align 16
  %28 = getelementptr inbounds i8, ptr %1, i64 18
  %29 = load i16, ptr %28, align 2
  %30 = and i16 %29, 31
  %31 = getelementptr inbounds i8, ptr %1, i64 20
  %32 = load i16, ptr %31, align 2
  %33 = tail call fastcc i32 @gm_phy_write(ptr noundef %7, i32 noundef %27, i16 noundef zeroext %30, i16 noundef zeroext %32)
  tail call void @_raw_spin_unlock_bh(ptr noundef %25) #22
  br label %34

34:                                               ; preds = %24, %14, %12, %3
  %35 = phi i32 [ -19, %3 ], [ -95, %12 ], [ %33, %24 ], [ %21, %14 ]
  ret i32 %35
}