; Function Attrs: fn_ret_thunk_extern nounwind null_pointer_is_valid
define internal noundef i32 @sky2_ioctl(ptr noundef %0, ptr nocapture noundef %1, i32 noundef %2) #2 align 16 {
  %4 = getelementptr inbounds i8, ptr %1, i64 16
  %5 = getelementptr i8, ptr %0, i64 2304
  %6 = load ptr, ptr %5, align 64
  %7 = getelementptr inbounds i8, ptr %0, i64 352
  %8 = load volatile i64, ptr %7, align 8
  %9 = and i64 %8, 1
  %10 = icmp eq i64 %9, 0
  br i1 %10, label %114, label %11

11:                                               ; preds = %3
  switch i32 %2, label %114 [
    i32 35143, label %12
    i32 35144, label %13
    i32 35145, label %64
  ]

12:                                               ; preds = %11
  store i16 0, ptr %4, align 2
  br label %13

13:                                               ; preds = %12, %11
  %14 = getelementptr i8, ptr %0, i64 2328
  tail call void @_raw_spin_lock_bh(ptr noundef %14) #22
  %15 = getelementptr i8, ptr %0, i64 2320
  %16 = load i32, ptr %15, align 16
  %17 = getelementptr inbounds i8, ptr %1, i64 18
  %18 = load i16, ptr %17, align 2
  %19 = shl i16 %18, 6
  %20 = and i16 %19, 1984
  %21 = or disjoint i16 %20, 32
  %22 = shl i32 %16, 12
  %23 = add i32 %22, 10368
  %24 = load ptr, ptr %6, align 8
  %25 = zext i32 %23 to i64
  %26 = getelementptr i8, ptr %24, i64 %25
  tail call void asm sideeffect "movw $0,$1", "r,*m,~{memory},~{dirflag},~{fpsr},~{flags}"(i16 %21, ptr elementtype(i16) %26) #22, !srcloc !13
  %27 = add i32 %22, 10372
  %28 = zext i32 %27 to i64
  br label %29

29:                                               ; preds = %41, %13
  %30 = phi i32 [ 0, %13 ], [ %42, %41 ]
  %31 = load ptr, ptr %6, align 8
  %32 = getelementptr i8, ptr %31, i64 %25
  %33 = tail call i16 asm sideeffect "movw $1,$0", "=r,*m,~{memory},~{dirflag},~{fpsr},~{flags}"(ptr elementtype(i16) %32) #22, !srcloc !16
  %34 = icmp eq i16 %33, -1
  br i1 %34, label %53, label %35

35:                                               ; preds = %29
  %36 = and i16 %33, 16
  %37 = icmp eq i16 %36, 0
  br i1 %37, label %41, label %.thread.i

.thread.i:                                        ; preds = %35
  %38 = load ptr, ptr %6, align 8
  %39 = getelementptr i8, ptr %38, i64 %28
  %40 = tail call i16 asm sideeffect "movw $1,$0", "=r,*m,~{memory},~{dirflag},~{fpsr},~{flags}"(ptr elementtype(i16) %39) #22, !srcloc !16
  br label %__gm_phy_read.exit

41:                                               ; preds = %35
  tail call void @__const_udelay(i64 noundef 42950) #22
  %42 = add nuw nsw i32 %30, 1
  %43 = icmp eq i32 %42, 1000
  br i1 %43, label %44, label %29, !llvm.loop !43

44:                                               ; preds = %41
  %45 = getelementptr inbounds i8, ptr %6, i64 8
  %46 = load ptr, ptr %45, align 8
  %47 = getelementptr inbounds i8, ptr %46, i64 184
  %48 = getelementptr inbounds i8, ptr %6, i64 416
  %49 = zext i32 %16 to i64
  %50 = getelementptr [2 x ptr], ptr %48, i64 0, i64 %49
  %51 = load ptr, ptr %50, align 8
  %52 = getelementptr inbounds i8, ptr %51, i64 296
  tail call void (ptr, ptr, ...) @_dev_warn(ptr noundef %47, ptr noundef nonnull @.str.35, ptr noundef %52) #23
  br label %__gm_phy_read.exit

53:                                               ; preds = %29
  %54 = getelementptr inbounds i8, ptr %6, i64 8
  %55 = load ptr, ptr %54, align 8
  %56 = getelementptr inbounds i8, ptr %55, i64 184
  %57 = getelementptr inbounds i8, ptr %6, i64 416
  %58 = zext i32 %16 to i64
  %59 = getelementptr [2 x ptr], ptr %57, i64 0, i64 %58
  %60 = load ptr, ptr %59, align 8
  %61 = getelementptr inbounds i8, ptr %60, i64 296
  tail call void (ptr, ptr, ...) @_dev_err(ptr noundef %56, ptr noundef nonnull @.str.36, ptr noundef %61) #23
  br label %__gm_phy_read.exit

__gm_phy_read.exit:                               ; preds = %.thread.i, %44, %53
  %.0 = phi i16 [ 0, %53 ], [ 0, %44 ], [ %40, %.thread.i ]
  %62 = phi i32 [ -5, %53 ], [ -110, %44 ], [ 0, %.thread.i ]
  tail call void @_raw_spin_unlock_bh(ptr noundef %14) #22
  %63 = getelementptr inbounds i8, ptr %1, i64 22
  store i16 %.0, ptr %63, align 2
  br label %114

64:                                               ; preds = %11
  %65 = getelementptr i8, ptr %0, i64 2328
  tail call void @_raw_spin_lock_bh(ptr noundef %65) #22
  %66 = getelementptr i8, ptr %0, i64 2320
  %67 = load i32, ptr %66, align 16
  %68 = getelementptr inbounds i8, ptr %1, i64 18
  %69 = load i16, ptr %68, align 2
  %70 = getelementptr inbounds i8, ptr %1, i64 20
  %71 = load i16, ptr %70, align 2
  %72 = shl i32 %67, 12
  %73 = add i32 %72, 10372
  %74 = load ptr, ptr %6, align 8
  %75 = zext i32 %73 to i64
  %76 = getelementptr i8, ptr %74, i64 %75
  tail call void asm sideeffect "movw $0,$1", "r,*m,~{memory},~{dirflag},~{fpsr},~{flags}"(i16 %71, ptr elementtype(i16) %76) #22, !srcloc !13
  %77 = shl i16 %69, 6
  %78 = and i16 %77, 1984
  %79 = add i32 %72, 10368
  %80 = load ptr, ptr %6, align 8
  %81 = zext i32 %79 to i64
  %82 = getelementptr i8, ptr %80, i64 %81
  tail call void asm sideeffect "movw $0,$1", "r,*m,~{memory},~{dirflag},~{fpsr},~{flags}"(i16 %78, ptr elementtype(i16) %82) #22, !srcloc !13
  br label %83

83:                                               ; preds = %92, %64
  %84 = phi i32 [ 0, %64 ], [ %93, %92 ]
  %85 = load ptr, ptr %6, align 8
  %86 = getelementptr i8, ptr %85, i64 %81
  %87 = tail call i16 asm sideeffect "movw $1,$0", "=r,*m,~{memory},~{dirflag},~{fpsr},~{flags}"(ptr elementtype(i16) %86) #22, !srcloc !16
  %88 = icmp eq i16 %87, -1
  br i1 %88, label %104, label %89

89:                                               ; preds = %83
  %90 = and i16 %87, 8
  %91 = icmp eq i16 %90, 0
  br i1 %91, label %gm_phy_write.exit, label %92

92:                                               ; preds = %89
  tail call void @__const_udelay(i64 noundef 42950) #22
  %93 = add nuw nsw i32 %84, 1
  %94 = icmp eq i32 %93, 1000
  br i1 %94, label %95, label %83, !llvm.loop !44

95:                                               ; preds = %92
  %96 = getelementptr inbounds i8, ptr %6, i64 8
  %97 = load ptr, ptr %96, align 8
  %98 = getelementptr inbounds i8, ptr %97, i64 184
  %99 = getelementptr inbounds i8, ptr %6, i64 416
  %100 = zext i32 %67 to i64
  %101 = getelementptr [2 x ptr], ptr %99, i64 0, i64 %100
  %102 = load ptr, ptr %101, align 8
  %103 = getelementptr inbounds i8, ptr %102, i64 296
  tail call void (ptr, ptr, ...) @_dev_warn(ptr noundef %98, ptr noundef nonnull @.str.37, ptr noundef %103) #23
  br label %gm_phy_write.exit

104:                                              ; preds = %83
  %105 = getelementptr inbounds i8, ptr %6, i64 8
  %106 = load ptr, ptr %105, align 8
  %107 = getelementptr inbounds i8, ptr %106, i64 184
  %108 = getelementptr inbounds i8, ptr %6, i64 416
  %109 = zext i32 %67 to i64
  %110 = getelementptr [2 x ptr], ptr %108, i64 0, i64 %109
  %111 = load ptr, ptr %110, align 8
  %112 = getelementptr inbounds i8, ptr %111, i64 296
  tail call void (ptr, ptr, ...) @_dev_err(ptr noundef %107, ptr noundef nonnull @.str.36, ptr noundef %112) #23
  br label %gm_phy_write.exit

gm_phy_write.exit:                                ; preds = %89, %95, %104
  %113 = phi i32 [ -5, %104 ], [ -110, %95 ], [ 0, %89 ]
  tail call void @_raw_spin_unlock_bh(ptr noundef %65) #22
  br label %114

114:                                              ; preds = %gm_phy_write.exit, %__gm_phy_read.exit, %11, %3
  %115 = phi i32 [ -19, %3 ], [ -95, %11 ], [ %113, %gm_phy_write.exit ], [ %62, %__gm_phy_read.exit ]
  ret i32 %115
}